; Function Attrs: mustprogress nounwind uwtable
define dso_local noundef ptr @_ZN4llvm12SCEVExpander19visitSignExtendExprEPKNS_18SCEVSignExtendExprE(ptr noundef nonnull align 8 dereferenceable(816) %0, ptr noundef readonly captures(none) %1) local_unnamed_addr #0 align 2 {
  %3 = alloca %"class.llvm::Twine", align 8
  %4 = getelementptr inbounds nuw i8, ptr %1, i64 32
  %5 = load ptr, ptr %4, align 8
  %6 = tail call noundef ptr @_ZN4llvm12SCEVExpander6expandEPKNS_4SCEVE(ptr noundef nonnull align 8 dereferenceable(816) %0, ptr noundef %5)
  %7 = getelementptr inbounds nuw i8, ptr %0, i64 472
  %8 = getelementptr inbounds nuw i8, ptr %1, i64 40
  %9 = load ptr, ptr %8, align 8
  %10 = getelementptr inbounds nuw i8, ptr %3, i64 32
  store i16 257, ptr %10, align 8
  %11 = call noundef ptr @_ZN4llvm13IRBuilderBase10CreateCastENS_11Instruction7CastOpsEPNS_5ValueEPNS_4TypeERKNS_5TwineE(ptr noundef nonnull align 8 dereferenceable(128) %7, i32 noundef 40, ptr noundef %6, ptr noundef %9, ptr noundef nonnull align 8 dereferenceable(34) %3)
  ret ptr %11
}